; Function Attrs: mustprogress uwtable
define void @_ZN8tinyxml212XMLAttribute12SetAttributeEl(ptr noundef nonnull align 8 captures(none) dereferenceable(80) initializes((48, 56)) %0, i64 noundef %1) local_unnamed_addr #4 align 2 {
  %3 = alloca [200 x i8], align 16
  call void @llvm.lifetime.start.p0(i64 200, ptr nonnull %3) #31
  %4 = call i32 (ptr, i64, ptr, ...) @snprintf(ptr noundef nonnull dereferenceable(1) %3, i64 noundef 200, ptr noundef nonnull @.str.7, i64 noundef %1) #31
  %5 = getelementptr inbounds nuw i8, ptr %0, i64 32
  %6 = load i32, ptr %5, align 8, !tbaa !3
  %7 = and i32 %6, 512
  %.not.i.i = icmp eq i32 %7, 0
  br i1 %.not.i.i, label %_ZN8tinyxml27StrPair6SetStrEPKci.exit, label %8

8:                                                ; preds = %2
  %9 = getelementptr inbounds nuw i8, ptr %0, i64 40
  %10 = load ptr, ptr %9, align 8, !tbaa !10
  %11 = icmp eq ptr %10, null
  br i1 %11, label %_ZN8tinyxml27StrPair6SetStrEPKci.exit, label %12

12:                                               ; preds = %8
  tail call void @_ZdaPv(ptr noundef nonnull %10) #30
  br label %_ZN8tinyxml27StrPair6SetStrEPKci.exit

_ZN8tinyxml27StrPair6SetStrEPKci.exit:            ; preds = %2, %8, %12
  store i32 0, ptr %5, align 8, !tbaa !3
  %13 = getelementptr inbounds nuw i8, ptr %0, i64 40
  tail call void @llvm.memset.p0.i64(ptr noundef nonnull align 8 dereferenceable(16) %13, i8 0, i64 16, i1 false)
  %14 = call i64 @strlen(ptr noundef nonnull readonly dereferenceable(1) %3) #33
  %15 = add i64 %14, 1
  %16 = tail call noalias noundef nonnull ptr @_Znam(i64 noundef %15) #34
  store ptr %16, ptr %13, align 8, !tbaa !10
  call void @llvm.memcpy.p0.p0.i64(ptr nonnull align 1 %16, ptr nonnull readonly align 16 %3, i64 %15, i1 false)
  %17 = getelementptr inbounds nuw i8, ptr %16, i64 %14
  %18 = getelementptr inbounds nuw i8, ptr %0, i64 48
  store ptr %17, ptr %18, align 8, !tbaa !11
  store i32 512, ptr %5, align 8, !tbaa !3
  call void @llvm.lifetime.end.p0(i64 200, ptr nonnull %3) #31
  ret void
}